target datalayout = "e-m:e-p270:32:32-p271:32:32-p272:64:64-i64:64-i128:128-f80:128-n8:16:32:64-S128"
target triple = "x86_64-pc-linux-gnu"

%struct._proto_node = type { ptr, ptr, ptr, ptr, ptr, ptr, ptr }

@global_enable_mbtcp = internal global i8 1, align 1
@.str.347 = private unnamed_addr constant [1 x i8] zeroinitializer, align 1
@.str.518 = private unnamed_addr constant [22 x i8] c"openSAFETY/Modbus TCP\00", align 1

; Function Attrs: null_pointer_is_valid sspstrong uwtable
define internal i32 @dissect_opensafety_mbtcp(ptr noundef %0, ptr noundef %1, ptr noundef %2, ptr noundef %3) #0 {
  %5 = alloca i32, align 4
  %6 = alloca ptr, align 8
  %7 = alloca ptr, align 8
  %8 = alloca ptr, align 8
  %9 = alloca ptr, align 8
  store ptr %0, ptr %6, align 8
  store ptr %1, ptr %7, align 8
  store ptr %2, ptr %8, align 8
  store ptr %3, ptr %9, align 8
  %10 = load i8, ptr @global_enable_mbtcp, align 1, !range !6, !noundef !7
  %11 = trunc i8 %10 to i1
  br i1 %11, label %13, label %12

12:                                               ; preds = %4
  store i32 0, ptr %5, align 4
  br label %32

13:                                               ; preds = %4
  %14 = load ptr, ptr %6, align 8
  %15 = load ptr, ptr %7, align 8
  %16 = load ptr, ptr %8, align 8
  %17 = icmp ne ptr %16, null
  br i1 %17, label %18, label %27

18:                                               ; preds = %13
  %19 = load ptr, ptr %8, align 8
  %20 = getelementptr inbounds nuw %struct._proto_node, ptr %19, i32 0, i32 3
  %21 = load ptr, ptr %20, align 8
  %22 = icmp ne ptr %21, null
  br i1 %22, label %23, label %27

23:                                               ; preds = %18
  %24 = load ptr, ptr %8, align 8
  %25 = getelementptr inbounds nuw %struct._proto_node, ptr %24, i32 0, i32 3
  %26 = load ptr, ptr %25, align 8
  br label %29

27:                                               ; preds = %18, %13
  %28 = load ptr, ptr %8, align 8
  br label %29

29:                                               ; preds = %27, %23
  %30 = phi ptr [ %26, %23 ], [ %28, %27 ]
  %31 = call i32 @opensafety_package_dissector(ptr noundef @.str.518, ptr noundef @.str.347, i1 noundef zeroext false, i1 noundef zeroext true, i8 noundef zeroext 0, ptr noundef %14, ptr noundef %15, ptr noundef %30, i8 noundef zeroext 0)
  store i32 %31, ptr %5, align 4
  br label %32

32:                                               ; preds = %29, %12
  %33 = load i32, ptr %5, align 4
  ret i32 %33
}