; Function Attrs: null_pointer_is_valid sspstrong uwtable
define internal range(i32 0, 2) i32 @dissect_opensafety_mbtcp(ptr noundef %0, ptr noundef %1, ptr noundef %2, ptr readnone captures(none) %3) #0 {
  %5 = load i8, ptr @global_enable_mbtcp, align 1, !range !6, !noundef !7
  %6 = trunc nuw i8 %5 to i1
  br i1 %6, label %7, label %15

7:                                                ; preds = %4
  %.not = icmp eq ptr %2, null
  br i1 %.not, label %11, label %8

8:                                                ; preds = %7
  %9 = getelementptr inbounds nuw i8, ptr %2, i64 24
  %10 = load ptr, ptr %9, align 8
  %.not8 = icmp eq ptr %10, null
  br i1 %.not8, label %11, label %12

11:                                               ; preds = %8, %7
  br label %12

12:                                               ; preds = %8, %11
  %13 = phi ptr [ %2, %11 ], [ %10, %8 ]
  %14 = tail call fastcc i32 @opensafety_package_dissector(ptr noundef nonnull @.str.518, ptr noundef nonnull @.str.347, i1 noundef zeroext false, i1 noundef zeroext true, i8 noundef zeroext 0, ptr noundef %0, ptr noundef %1, ptr noundef %13, i8 noundef zeroext 0)
  br label %15

15:                                               ; preds = %4, %12
  %.0 = phi i32 [ %14, %12 ], [ 0, %4 ]
  ret i32 %.0
}